target datalayout = "e-m:e-p270:32:32-p271:32:32-p272:64:64-i64:64-i128:128-f80:128-n8:16:32:64-S128"
target triple = "x86_64-pc-linux-gnu"

%struct._e_addr_resolve = type { i8, i8, i8, i8, i8, i8, i8, i8, i8 }
%struct.hashipv4 = type { i32, i8, [16 x i8], [256 x i8], [19 x i8] }

@gbl_resolv_flags = global %struct._e_addr_resolve { i8 1, i8 0, i8 0, i8 1, i8 0, i8 1, i8 0, i8 0, i8 1 }, align 1

; Function Attrs: null_pointer_is_valid sspstrong uwtable
define hidden void @add_ether_byip(i32 noundef %0, ptr noundef %1) #3 {
  %3 = alloca i32, align 4
  %4 = alloca ptr, align 8
  %5 = alloca ptr, align 8
  %6 = alloca i32, align 4
  store i32 %0, ptr %3, align 4
  store ptr %1, ptr %4, align 8
  call void @llvm.lifetime.start.p0(i64 8, ptr %5) #16
  %7 = load i8, ptr getelementptr inbounds nuw (%struct._e_addr_resolve, ptr @gbl_resolv_flags, i32 0, i32 1), align 1, !range !8, !noundef !9
  %8 = trunc i8 %7 to i1
  br i1 %8, label %10, label %9

9:                                                ; preds = %2
  store i32 1, ptr %6, align 4
  br label %26

10:                                               ; preds = %2
  %11 = load i32, ptr %3, align 4
  %12 = call ptr @host_lookup(i32 noundef %11)
  store ptr %12, ptr %5, align 8
  %13 = load ptr, ptr %5, align 8
  %14 = getelementptr inbounds nuw %struct.hashipv4, ptr %13, i32 0, i32 1
  %15 = load i8, ptr %14, align 4
  %16 = zext i8 %15 to i32
  %17 = and i32 %16, 2
  %18 = icmp ne i32 %17, 0
  br i1 %18, label %19, label %25

19:                                               ; preds = %10
  %20 = load ptr, ptr %4, align 8
  %21 = load ptr, ptr %5, align 8
  %22 = getelementptr inbounds nuw %struct.hashipv4, ptr %21, i32 0, i32 3
  %23 = getelementptr inbounds [256 x i8], ptr %22, i64 0, i64 0
  %24 = call ptr @add_eth_name(ptr noundef %20, ptr noundef %23, i1 noundef zeroext false)
  br label %25

25:                                               ; preds = %19, %10
  store i32 0, ptr %6, align 4
  br label %26

26:                                               ; preds = %25, %9
  call void @llvm.lifetime.end.p0(i64 8, ptr %5) #16
  %27 = load i32, ptr %6, align 4
  switch i32 %27, label %29 [
    i32 0, label %28
    i32 1, label %28
  ]

28:                                               ; preds = %26, %26
  ret void

29:                                               ; preds = %26
  unreachable
}