; Function Attrs: null_pointer_is_valid sspstrong uwtable
define hidden void @add_ether_byip(i32 noundef %0, ptr noundef %1) local_unnamed_addr #3 {
  %3 = load i8, ptr getelementptr inbounds nuw (i8, ptr @gbl_resolv_flags, i64 1), align 1, !range !16, !noundef !17
  %4 = trunc nuw i8 %3 to i1
  br i1 %4, label %5, label %12

5:                                                ; preds = %2
  %6 = tail call fastcc ptr @host_lookup(i32 noundef %0)
  %7 = getelementptr inbounds nuw i8, ptr %6, i64 4
  %8 = load i8, ptr %7, align 4
  %9 = and i8 %8, 2
  %.not = icmp eq i8 %9, 0
  br i1 %.not, label %12, label %10

10:                                               ; preds = %5
  %11 = getelementptr inbounds nuw i8, ptr %6, i64 21
  tail call fastcc void @add_eth_name(ptr noundef %1, ptr noundef nonnull %11, i1 noundef zeroext false)
  br label %12

12:                                               ; preds = %5, %10, %2
  ret void
}